target datalayout = "e-m:e-p270:32:32-p271:32:32-p272:64:64-i64:64-i128:128-f80:128-n8:16:32:64-S128"
target triple = "x86_64-pc-linux-gnu"

; Function Attrs: nounwind uwtable
define void @ff_mlp_rematrix_channel(ptr noundef %0, ptr noundef %1, ptr noundef %2, ptr noundef %3, i32 noundef %4, i32 noundef %5, i16 noundef zeroext %6, i32 noundef %7, i32 noundef %8, i32 noundef %9, i32 noundef %10) #0 {
  %12 = alloca ptr, align 8
  %13 = alloca ptr, align 8
  %14 = alloca ptr, align 8
  %15 = alloca ptr, align 8
  %16 = alloca i32, align 4
  %17 = alloca i32, align 4
  %18 = alloca i16, align 2
  %19 = alloca i32, align 4
  %20 = alloca i32, align 4
  %21 = alloca i32, align 4
  %22 = alloca i32, align 4
  %23 = alloca i32, align 4
  %24 = alloca i32, align 4
  %25 = alloca i32, align 4
  %26 = alloca i64, align 8
  store ptr %0, ptr %12, align 8, !tbaa !4
  store ptr %1, ptr %13, align 8, !tbaa !4
  store ptr %2, ptr %14, align 8, !tbaa !9
  store ptr %3, ptr %15, align 8, !tbaa !9
  store i32 %4, ptr %16, align 4, !tbaa !11
  store i32 %5, ptr %17, align 4, !tbaa !11
  store i16 %6, ptr %18, align 2, !tbaa !13
  store i32 %7, ptr %19, align 4, !tbaa !11
  store i32 %8, ptr %20, align 4, !tbaa !11
  store i32 %9, ptr %21, align 4, !tbaa !11
  store i32 %10, ptr %22, align 4, !tbaa !11
  call void @llvm.lifetime.start.p0(i64 4, ptr %23) #3
  call void @llvm.lifetime.start.p0(i64 4, ptr %24) #3
  call void @llvm.lifetime.start.p0(i64 4, ptr %25) #3
  %27 = load i32, ptr %16, align 4, !tbaa !11
  %28 = mul nsw i32 2, %27
  %29 = add nsw i32 %28, 1
  store i32 %29, ptr %25, align 4, !tbaa !11
  store i32 0, ptr %24, align 4, !tbaa !11
  br label %30

30:                                               ; preds = %102, %11
  %31 = load i32, ptr %24, align 4, !tbaa !11
  %32 = load i16, ptr %18, align 2, !tbaa !13
  %33 = zext i16 %32 to i32
  %34 = icmp ult i32 %31, %33
  br i1 %34, label %35, label %105

35:                                               ; preds = %30
  call void @llvm.lifetime.start.p0(i64 8, ptr %26) #3
  store i64 0, ptr %26, align 8, !tbaa !15
  store i32 0, ptr %23, align 4, !tbaa !11
  br label %36

36:                                               ; preds = %56, %35
  %37 = load i32, ptr %23, align 4, !tbaa !11
  %38 = load i32, ptr %19, align 4, !tbaa !11
  %39 = icmp ule i32 %37, %38
  br i1 %39, label %40, label %59

40:                                               ; preds = %36
  %41 = load ptr, ptr %12, align 8, !tbaa !4
  %42 = load i32, ptr %23, align 4, !tbaa !11
  %43 = zext i32 %42 to i64
  %44 = getelementptr inbounds nuw i32, ptr %41, i64 %43
  %45 = load i32, ptr %44, align 4, !tbaa !11
  %46 = sext i32 %45 to i64
  %47 = load ptr, ptr %13, align 8, !tbaa !4
  %48 = load i32, ptr %23, align 4, !tbaa !11
  %49 = zext i32 %48 to i64
  %50 = getelementptr inbounds nuw i32, ptr %47, i64 %49
  %51 = load i32, ptr %50, align 4, !tbaa !11
  %52 = sext i32 %51 to i64
  %53 = mul nsw i64 %46, %52
  %54 = load i64, ptr %26, align 8, !tbaa !15
  %55 = add nsw i64 %54, %53
  store i64 %55, ptr %26, align 8, !tbaa !15
  br label %56

56:                                               ; preds = %40
  %57 = load i32, ptr %23, align 4, !tbaa !11
  %58 = add i32 %57, 1
  store i32 %58, ptr %23, align 4, !tbaa !11
  br label %36, !llvm.loop !17

59:                                               ; preds = %36
  %60 = load i32, ptr %20, align 4, !tbaa !11
  %61 = icmp ne i32 %60, 0
  br i1 %61, label %62, label %83

62:                                               ; preds = %59
  %63 = load i32, ptr %21, align 4, !tbaa !11
  %64 = sub nsw i32 %63, 1
  %65 = load i32, ptr %16, align 4, !tbaa !11
  %66 = and i32 %65, %64
  store i32 %66, ptr %16, align 4, !tbaa !11
  %67 = load ptr, ptr %15, align 8, !tbaa !9
  %68 = load i32, ptr %16, align 4, !tbaa !11
  %69 = sext i32 %68 to i64
  %70 = getelementptr inbounds i8, ptr %67, i64 %69
  %71 = load i8, ptr %70, align 1, !tbaa !19
  %72 = sext i8 %71 to i32
  %73 = load i32, ptr %20, align 4, !tbaa !11
  %74 = add nsw i32 %73, 7
  %75 = shl i32 1, %74
  %76 = mul nsw i32 %72, %75
  %77 = sext i32 %76 to i64
  %78 = load i64, ptr %26, align 8, !tbaa !15
  %79 = add nsw i64 %78, %77
  store i64 %79, ptr %26, align 8, !tbaa !15
  %80 = load i32, ptr %25, align 4, !tbaa !11
  %81 = load i32, ptr %16, align 4, !tbaa !11
  %82 = add nsw i32 %81, %80
  store i32 %82, ptr %16, align 4, !tbaa !11
  br label %83

83:                                               ; preds = %62, %59
  %84 = load i64, ptr %26, align 8, !tbaa !15
  %85 = ashr i64 %84, 14
  %86 = load i32, ptr %22, align 4, !tbaa !11
  %87 = sext i32 %86 to i64
  %88 = and i64 %85, %87
  %89 = load ptr, ptr %14, align 8, !tbaa !9
  %90 = load i8, ptr %89, align 1, !tbaa !19
  %91 = zext i8 %90 to i64
  %92 = add nsw i64 %88, %91
  %93 = trunc i64 %92 to i32
  %94 = load ptr, ptr %12, align 8, !tbaa !4
  %95 = load i32, ptr %17, align 4, !tbaa !11
  %96 = zext i32 %95 to i64
  %97 = getelementptr inbounds nuw i32, ptr %94, i64 %96
  store i32 %93, ptr %97, align 4, !tbaa !11
  %98 = load ptr, ptr %14, align 8, !tbaa !9
  %99 = getelementptr inbounds i8, ptr %98, i64 8
  store ptr %99, ptr %14, align 8, !tbaa !9
  %100 = load ptr, ptr %12, align 8, !tbaa !4
  %101 = getelementptr inbounds i32, ptr %100, i64 8
  store ptr %101, ptr %12, align 8, !tbaa !4
  call void @llvm.lifetime.end.p0(i64 8, ptr %26) #3
  br label %102

102:                                              ; preds = %83
  %103 = load i32, ptr %24, align 4, !tbaa !11
  %104 = add i32 %103, 1
  store i32 %104, ptr %24, align 4, !tbaa !11
  br label %30, !llvm.loop !20

105:                                              ; preds = %30
  call void @llvm.lifetime.end.p0(i64 4, ptr %25) #3
  call void @llvm.lifetime.end.p0(i64 4, ptr %24) #3
  call void @llvm.lifetime.end.p0(i64 4, ptr %23) #3
  ret void
}