; Function Attrs: nofree norecurse nosync nounwind memory(argmem: readwrite) uwtable
define void @ff_mlp_rematrix_channel(ptr noundef captures(none) %0, ptr noundef readonly captures(none) %1, ptr noundef readonly captures(none) %2, ptr noundef readonly captures(none) %3, i32 noundef %4, i32 noundef %5, i16 noundef zeroext %6, i32 noundef %7, i32 noundef %8, i32 noundef %9, i32 noundef %10) #0 {
  %12 = shl nsw i32 %4, 1
  %13 = or disjoint i32 %12, 1
  %14 = zext i16 %6 to i32
  %.not41 = icmp eq i16 %6, 0
  br i1 %.not41, label %._crit_edge, label %.preheader.lr.ph

.preheader.lr.ph:                                 ; preds = %11
  %.not34 = icmp eq i32 %8, 0
  %15 = add nsw i32 %9, -1
  %16 = add nsw i32 %8, 7
  %17 = zext i32 %10 to i64
  %18 = zext i32 %5 to i64
  %19 = add i32 %7, 1
  %umax49 = tail call i32 @llvm.umax.i32(i32 %19, i32 1)
  %wide.trip.count50 = zext i32 %umax49 to i64
  br i1 %.not34, label %.preheader.us, label %.preheader

.preheader.us:                                    ; preds = %.preheader.lr.ph, %29
  %.02740.us = phi ptr [ %38, %29 ], [ %0, %.preheader.lr.ph ]
  %.02839.us = phi i32 [ %39, %29 ], [ 0, %.preheader.lr.ph ]
  %.03038.us = phi ptr [ %37, %29 ], [ %2, %.preheader.lr.ph ]
  br label %20

20:                                               ; preds = %20, %.preheader.us
  %indvars.iv46 = phi i64 [ %indvars.iv.next47, %20 ], [ 0, %.preheader.us ]
  %.036.us = phi i64 [ %28, %20 ], [ 0, %.preheader.us ]
  %21 = getelementptr inbounds nuw i32, ptr %.02740.us, i64 %indvars.iv46
  %22 = load i32, ptr %21, align 4, !tbaa !4
  %23 = sext i32 %22 to i64
  %24 = getelementptr inbounds nuw i32, ptr %1, i64 %indvars.iv46
  %25 = load i32, ptr %24, align 4, !tbaa !4
  %26 = sext i32 %25 to i64
  %27 = mul nsw i64 %26, %23
  %28 = add nsw i64 %27, %.036.us
  %indvars.iv.next47 = add nuw nsw i64 %indvars.iv46, 1
  %exitcond51 = icmp eq i64 %indvars.iv.next47, %wide.trip.count50
  br i1 %exitcond51, label %29, label %20, !llvm.loop !8

29:                                               ; preds = %20
  %30 = lshr i64 %28, 14
  %31 = and i64 %30, %17
  %32 = load i8, ptr %.03038.us, align 1, !tbaa !10
  %33 = zext i8 %32 to i64
  %34 = add nuw nsw i64 %31, %33
  %35 = trunc i64 %34 to i32
  %36 = getelementptr inbounds nuw i32, ptr %.02740.us, i64 %18
  store i32 %35, ptr %36, align 4, !tbaa !4
  %37 = getelementptr inbounds nuw i8, ptr %.03038.us, i64 8
  %38 = getelementptr inbounds nuw i8, ptr %.02740.us, i64 32
  %39 = add nuw nsw i32 %.02839.us, 1
  %exitcond52.not = icmp eq i32 %39, %14
  br i1 %exitcond52.not, label %._crit_edge, label %.preheader.us, !llvm.loop !11

.preheader:                                       ; preds = %.preheader.lr.ph, %49
  %.02740 = phi ptr [ %67, %49 ], [ %0, %.preheader.lr.ph ]
  %.02839 = phi i32 [ %68, %49 ], [ 0, %.preheader.lr.ph ]
  %.03038 = phi ptr [ %66, %49 ], [ %2, %.preheader.lr.ph ]
  %.03137 = phi i32 [ %58, %49 ], [ %4, %.preheader.lr.ph ]
  br label %40

40:                                               ; preds = %.preheader, %40
  %indvars.iv = phi i64 [ 0, %.preheader ], [ %indvars.iv.next, %40 ]
  %.036 = phi i64 [ 0, %.preheader ], [ %48, %40 ]
  %41 = getelementptr inbounds nuw i32, ptr %.02740, i64 %indvars.iv
  %42 = load i32, ptr %41, align 4, !tbaa !4
  %43 = sext i32 %42 to i64
  %44 = getelementptr inbounds nuw i32, ptr %1, i64 %indvars.iv
  %45 = load i32, ptr %44, align 4, !tbaa !4
  %46 = sext i32 %45 to i64
  %47 = mul nsw i64 %46, %43
  %48 = add nsw i64 %47, %.036
  %indvars.iv.next = add nuw nsw i64 %indvars.iv, 1
  %exitcond = icmp eq i64 %indvars.iv.next, %wide.trip.count50
  br i1 %exitcond, label %49, label %40, !llvm.loop !8

49:                                               ; preds = %40
  %50 = and i32 %.03137, %15
  %51 = sext i32 %50 to i64
  %52 = getelementptr inbounds i8, ptr %3, i64 %51
  %53 = load i8, ptr %52, align 1, !tbaa !10
  %54 = sext i8 %53 to i32
  %55 = shl i32 %54, %16
  %56 = sext i32 %55 to i64
  %57 = add nsw i64 %48, %56
  %58 = add nsw i32 %13, %50
  %59 = lshr i64 %57, 14
  %60 = and i64 %59, %17
  %61 = load i8, ptr %.03038, align 1, !tbaa !10
  %62 = zext i8 %61 to i64
  %63 = add nuw nsw i64 %60, %62
  %64 = trunc i64 %63 to i32
  %65 = getelementptr inbounds nuw i32, ptr %.02740, i64 %18
  store i32 %64, ptr %65, align 4, !tbaa !4
  %66 = getelementptr inbounds nuw i8, ptr %.03038, i64 8
  %67 = getelementptr inbounds nuw i8, ptr %.02740, i64 32
  %68 = add nuw nsw i32 %.02839, 1
  %exitcond45.not = icmp eq i32 %68, %14
  br i1 %exitcond45.not, label %._crit_edge, label %.preheader, !llvm.loop !11

._crit_edge:                                      ; preds = %49, %29, %11
  ret void
}